target datalayout = "e-m:e-p270:32:32-p271:32:32-p272:64:64-i64:64-i128:128-f80:128-n8:16:32:64-S128"
target triple = "x86_64-unknown-linux-gnu"

%"struct.icu_75::RegularExpression" = type <{ i32, [4 x i8], ptr, ptr, ptr, i32, [4 x i8], ptr, ptr, i32, i8, [3 x i8] }>
%struct.UText = type { i32, i32, i32, i32, i64, i32, i32, i64, i32, i32, ptr, ptr, ptr, ptr, ptr, ptr, ptr, ptr, i64, i32, i32, i64, i32, i32 }

; Function Attrs: mustprogress nounwind uwtable
define internal noundef signext i8 @_ZL9U_FAILURE10UErrorCode(i32 noundef %code) #0 {
entry:
  %code.addr = alloca i32, align 4
  store i32 %code, ptr %code.addr, align 4
  %0 = load i32, ptr %code.addr, align 4
  %cmp = icmp sgt i32 %0, 0
  %conv = zext i1 %cmp to i8
  ret i8 %conv
}

; Function Attrs: mustprogress nounwind uwtable
define internal noundef signext i8 @_ZL10validateREPKN6icu_7517RegularExpressionEaP10UErrorCode(ptr noundef %re, i8 noundef signext %requiresText, ptr noundef %status) #0 {
entry:
  %retval = alloca i8, align 1
  %re.addr = alloca ptr, align 8
  %requiresText.addr = alloca i8, align 1
  %status.addr = alloca ptr, align 8
  store ptr %re, ptr %re.addr, align 8
  store i8 %requiresText, ptr %requiresText.addr, align 1
  store ptr %status, ptr %status.addr, align 8
  %0 = load ptr, ptr %status.addr, align 8
  %1 = load i32, ptr %0, align 4
  %call = call noundef signext i8 @_ZL9U_FAILURE10UErrorCode(i32 noundef %1)
  %tobool = icmp ne i8 %call, 0
  br i1 %tobool, label %if.then, label %if.end

if.then:                                          ; preds = %entry
  store i8 0, ptr %retval, align 1
  br label %return

if.end:                                           ; preds = %entry
  %2 = load ptr, ptr %re.addr, align 8
  %cmp = icmp eq ptr %2, null
  br i1 %cmp, label %if.then2, label %lor.lhs.false

lor.lhs.false:                                    ; preds = %if.end
  %3 = load ptr, ptr %re.addr, align 8
  %fMagic = getelementptr inbounds %"struct.icu_75::RegularExpression", ptr %3, i32 0, i32 0
  %4 = load i32, ptr %fMagic, align 8
  %cmp1 = icmp ne i32 %4, 1919252592
  br i1 %cmp1, label %if.then2, label %if.end3

if.then2:                                         ; preds = %lor.lhs.false, %if.end
  %5 = load ptr, ptr %status.addr, align 8
  store i32 1, ptr %5, align 4
  store i8 0, ptr %retval, align 1
  br label %return

if.end3:                                          ; preds = %lor.lhs.false
  %6 = load i8, ptr %requiresText.addr, align 1
  %tobool4 = icmp ne i8 %6, 0
  br i1 %tobool4, label %land.lhs.true, label %if.end9

land.lhs.true:                                    ; preds = %if.end3
  %7 = load ptr, ptr %re.addr, align 8
  %fText = getelementptr inbounds %"struct.icu_75::RegularExpression", ptr %7, i32 0, i32 8
  %8 = load ptr, ptr %fText, align 8
  %cmp5 = icmp eq ptr %8, null
  br i1 %cmp5, label %land.lhs.true6, label %if.end9

land.lhs.true6:                                   ; preds = %land.lhs.true
  %9 = load ptr, ptr %re.addr, align 8
  %fOwnsText = getelementptr inbounds %"struct.icu_75::RegularExpression", ptr %9, i32 0, i32 10
  %10 = load i8, ptr %fOwnsText, align 4
  %tobool7 = icmp ne i8 %10, 0
  br i1 %tobool7, label %if.end9, label %if.then8

if.then8:                                         ; preds = %land.lhs.true6
  %11 = load ptr, ptr %status.addr, align 8
  store i32 66306, ptr %11, align 4
  store i8 0, ptr %retval, align 1
  br label %return

if.end9:                                          ; preds = %land.lhs.true6, %land.lhs.true, %if.end3
  store i8 1, ptr %retval, align 1
  br label %return

return:                                           ; preds = %if.end9, %if.then8, %if.then2, %if.then
  %12 = load i8, ptr %retval, align 1
  ret i8 %12
}

; Function Attrs: mustprogress uwtable
define ptr @uregex_getText_75(ptr noundef %regexp2, ptr noundef %textLength, ptr noundef %status) #4 {
entry:
  %retval = alloca ptr, align 8
  %regexp2.addr = alloca ptr, align 8
  %textLength.addr = alloca ptr, align 8
  %status.addr = alloca ptr, align 8
  %regexp = alloca ptr, align 8
  %inputText = alloca ptr, align 8
  %inputNativeLength = alloca i64, align 8
  %lengthStatus = alloca i32, align 4
  %inputChars = alloca ptr, align 8
  store ptr %regexp2, ptr %regexp2.addr, align 8
  store ptr %textLength, ptr %textLength.addr, align 8
  store ptr %status, ptr %status.addr, align 8
  %0 = load ptr, ptr %regexp2.addr, align 8
  store ptr %0, ptr %regexp, align 8
  %1 = load ptr, ptr %regexp, align 8
  %2 = load ptr, ptr %status.addr, align 8
  %call = call noundef signext i8 @_ZL10validateREPKN6icu_7517RegularExpressionEaP10UErrorCode(ptr noundef %1, i8 noundef signext 0, ptr noundef %2)
  %conv = sext i8 %call to i32
  %cmp = icmp eq i32 %conv, 0
  br i1 %cmp, label %if.then, label %if.end

if.then:                                          ; preds = %entry
  store ptr null, ptr %retval, align 8
  br label %return

if.end:                                           ; preds = %entry
  %3 = load ptr, ptr %regexp, align 8
  %fText = getelementptr inbounds %"struct.icu_75::RegularExpression", ptr %3, i32 0, i32 8
  %4 = load ptr, ptr %fText, align 8
  %cmp1 = icmp eq ptr %4, null
  br i1 %cmp1, label %if.then2, label %if.end24

if.then2:                                         ; preds = %if.end
  %5 = load ptr, ptr %regexp, align 8
  %fMatcher = getelementptr inbounds %"struct.icu_75::RegularExpression", ptr %5, i32 0, i32 7
  %6 = load ptr, ptr %fMatcher, align 8
  %call3 = call noundef ptr @_ZNK6icu_7512RegexMatcher9inputTextEv(ptr noundef nonnull align 8 dereferenceable(336) %6)
  store ptr %call3, ptr %inputText, align 8
  %7 = load ptr, ptr %inputText, align 8
  %call4 = call i64 @utext_nativeLength_75(ptr noundef %7)
  store i64 %call4, ptr %inputNativeLength, align 8
  %8 = load ptr, ptr %inputText, align 8
  %chunkNativeStart = getelementptr inbounds %struct.UText, ptr %8, i32 0, i32 7
  %9 = load i64, ptr %chunkNativeStart, align 8
  %cmp5 = icmp eq i64 0, %9
  br i1 %cmp5, label %land.lhs.true, label %if.else

land.lhs.true:                                    ; preds = %if.then2
  %10 = load i64, ptr %inputNativeLength, align 8
  %11 = load ptr, ptr %inputText, align 8
  %chunkNativeLimit = getelementptr inbounds %struct.UText, ptr %11, i32 0, i32 4
  %12 = load i64, ptr %chunkNativeLimit, align 8
  %cmp6 = icmp eq i64 %10, %12
  br i1 %cmp6, label %land.lhs.true7, label %if.else

land.lhs.true7:                                   ; preds = %land.lhs.true
  %13 = load i64, ptr %inputNativeLength, align 8
  %14 = load ptr, ptr %inputText, align 8
  %nativeIndexingLimit = getelementptr inbounds %struct.UText, ptr %14, i32 0, i32 6
  %15 = load i32, ptr %nativeIndexingLimit, align 4
  %conv8 = sext i32 %15 to i64
  %cmp9 = icmp eq i64 %13, %conv8
  br i1 %cmp9, label %if.then10, label %if.else

if.then10:                                        ; preds = %land.lhs.true7
  %16 = load ptr, ptr %inputText, align 8
  %chunkContents = getelementptr inbounds %struct.UText, ptr %16, i32 0, i32 10
  %17 = load ptr, ptr %chunkContents, align 8
  %18 = load ptr, ptr %regexp, align 8
  %fText11 = getelementptr inbounds %"struct.icu_75::RegularExpression", ptr %18, i32 0, i32 8
  store ptr %17, ptr %fText11, align 8
  %19 = load i64, ptr %inputNativeLength, align 8
  %conv12 = trunc i64 %19 to i32
  %20 = load ptr, ptr %regexp, align 8
  %fTextLength = getelementptr inbounds %"struct.icu_75::RegularExpression", ptr %20, i32 0, i32 9
  store i32 %conv12, ptr %fTextLength, align 8
  %21 = load ptr, ptr %regexp, align 8
  %fOwnsText = getelementptr inbounds %"struct.icu_75::RegularExpression", ptr %21, i32 0, i32 10
  store i8 0, ptr %fOwnsText, align 4
  br label %if.end23

if.else:                                          ; preds = %land.lhs.true7, %land.lhs.true, %if.then2
  store i32 0, ptr %lengthStatus, align 4
  %22 = load ptr, ptr %inputText, align 8
  %23 = load i64, ptr %inputNativeLength, align 8
  %call13 = call i32 @utext_extract_75(ptr noundef %22, i64 noundef 0, i64 noundef %23, ptr noundef null, i32 noundef 0, ptr noundef %lengthStatus)
  %24 = load ptr, ptr %regexp, align 8
  %fTextLength14 = getelementptr inbounds %"struct.icu_75::RegularExpression", ptr %24, i32 0, i32 9
  store i32 %call13, ptr %fTextLength14, align 8
  %25 = load ptr, ptr %regexp, align 8
  %fTextLength15 = getelementptr inbounds %"struct.icu_75::RegularExpression", ptr %25, i32 0, i32 9
  %26 = load i32, ptr %fTextLength15, align 8
  %add = add nsw i32 %26, 1
  %conv16 = sext i32 %add to i64
  %mul = mul i64 2, %conv16
  %call17 = call noalias ptr @uprv_malloc_75(i64 noundef %mul) #9
  store ptr %call17, ptr %inputChars, align 8
  %27 = load ptr, ptr %inputText, align 8
  %28 = load i64, ptr %inputNativeLength, align 8
  %29 = load ptr, ptr %inputChars, align 8
  %30 = load ptr, ptr %regexp, align 8
  %fTextLength18 = getelementptr inbounds %"struct.icu_75::RegularExpression", ptr %30, i32 0, i32 9
  %31 = load i32, ptr %fTextLength18, align 8
  %add19 = add nsw i32 %31, 1
  %32 = load ptr, ptr %status.addr, align 8
  %call20 = call i32 @utext_extract_75(ptr noundef %27, i64 noundef 0, i64 noundef %28, ptr noundef %29, i32 noundef %add19, ptr noundef %32)
  %33 = load ptr, ptr %inputChars, align 8
  %34 = load ptr, ptr %regexp, align 8
  %fText21 = getelementptr inbounds %"struct.icu_75::RegularExpression", ptr %34, i32 0, i32 8
  store ptr %33, ptr %fText21, align 8
  %35 = load ptr, ptr %regexp, align 8
  %fOwnsText22 = getelementptr inbounds %"struct.icu_75::RegularExpression", ptr %35, i32 0, i32 10
  store i8 1, ptr %fOwnsText22, align 4
  br label %if.end23

if.end23:                                         ; preds = %if.else, %if.then10
  br label %if.end24

if.end24:                                         ; preds = %if.end23, %if.end
  %36 = load ptr, ptr %textLength.addr, align 8
  %cmp25 = icmp ne ptr %36, null
  br i1 %cmp25, label %if.then26, label %if.end28

if.then26:                                        ; preds = %if.end24
  %37 = load ptr, ptr %regexp, align 8
  %fTextLength27 = getelementptr inbounds %"struct.icu_75::RegularExpression", ptr %37, i32 0, i32 9
  %38 = load i32, ptr %fTextLength27, align 8
  %39 = load ptr, ptr %textLength.addr, align 8
  store i32 %38, ptr %39, align 4
  br label %if.end28

if.end28:                                         ; preds = %if.then26, %if.end24
  %40 = load ptr, ptr %regexp, align 8
  %fText29 = getelementptr inbounds %"struct.icu_75::RegularExpression", ptr %40, i32 0, i32 8
  %41 = load ptr, ptr %fText29, align 8
  store ptr %41, ptr %retval, align 8
  br label %return

return:                                           ; preds = %if.end28, %if.then
  %42 = load ptr, ptr %retval, align 8
  ret ptr %42
}