; Function Attrs: mustprogress uwtable
define ptr @uregex_getText_75(ptr noundef %regexp2, ptr noundef writeonly %textLength, ptr noundef %status) local_unnamed_addr #5 {
entry:
  %lengthStatus = alloca i32, align 4
  %0 = load i32, ptr %status, align 4
  %cmp.i.i = icmp slt i32 %0, 1
  br i1 %cmp.i.i, label %if.end.i, label %return

if.end.i:                                         ; preds = %entry
  %cmp.i = icmp eq ptr %regexp2, null
  br i1 %cmp.i, label %return.sink.split.i, label %lor.lhs.false.i

lor.lhs.false.i:                                  ; preds = %if.end.i
  %1 = load i32, ptr %regexp2, align 8
  %cmp1.not.i = icmp eq i32 %1, 1919252592
  br i1 %cmp1.not.i, label %if.end, label %return.sink.split.i

return.sink.split.i:                              ; preds = %lor.lhs.false.i, %if.end.i
  store i32 1, ptr %status, align 4
  br label %return

if.end:                                           ; preds = %lor.lhs.false.i
  %fText = getelementptr inbounds i8, ptr %regexp2, i64 48
  %2 = load ptr, ptr %fText, align 8
  %cmp1 = icmp eq ptr %2, null
  br i1 %cmp1, label %if.then2, label %if.end24

if.then2:                                         ; preds = %if.end
  %fMatcher = getelementptr inbounds i8, ptr %regexp2, i64 40
  %3 = load ptr, ptr %fMatcher, align 8
  %call3 = tail call noundef ptr @_ZNK6icu_7512RegexMatcher9inputTextEv(ptr noundef nonnull align 8 dereferenceable(336) %3)
  %call4 = tail call i64 @utext_nativeLength_75(ptr noundef %call3)
  %chunkNativeStart = getelementptr inbounds i8, ptr %call3, i64 32
  %4 = load i64, ptr %chunkNativeStart, align 8
  %cmp5 = icmp eq i64 %4, 0
  br i1 %cmp5, label %land.lhs.true, label %if.else

land.lhs.true:                                    ; preds = %if.then2
  %chunkNativeLimit = getelementptr inbounds i8, ptr %call3, i64 16
  %5 = load i64, ptr %chunkNativeLimit, align 8
  %cmp6 = icmp eq i64 %call4, %5
  br i1 %cmp6, label %land.lhs.true7, label %if.else

land.lhs.true7:                                   ; preds = %land.lhs.true
  %nativeIndexingLimit = getelementptr inbounds i8, ptr %call3, i64 28
  %6 = load i32, ptr %nativeIndexingLimit, align 4
  %conv8 = sext i32 %6 to i64
  %cmp9 = icmp eq i64 %call4, %conv8
  br i1 %cmp9, label %if.then10, label %if.else

if.then10:                                        ; preds = %land.lhs.true7
  %chunkContents = getelementptr inbounds i8, ptr %call3, i64 48
  %7 = load ptr, ptr %chunkContents, align 8
  store ptr %7, ptr %fText, align 8
  %conv12 = trunc i64 %call4 to i32
  %fTextLength = getelementptr inbounds i8, ptr %regexp2, i64 56
  store i32 %conv12, ptr %fTextLength, align 8
  br label %if.end24.sink.split

if.else:                                          ; preds = %land.lhs.true7, %land.lhs.true, %if.then2
  store i32 0, ptr %lengthStatus, align 4
  %call13 = call i32 @utext_extract_75(ptr noundef nonnull %call3, i64 noundef 0, i64 noundef %call4, ptr noundef null, i32 noundef 0, ptr noundef nonnull %lengthStatus)
  %fTextLength14 = getelementptr inbounds i8, ptr %regexp2, i64 56
  store i32 %call13, ptr %fTextLength14, align 8
  %add = add nsw i32 %call13, 1
  %conv16 = sext i32 %add to i64
  %mul = shl nsw i64 %conv16, 1
  %call17 = call noalias ptr @uprv_malloc_75(i64 noundef %mul) #12
  %8 = load i32, ptr %fTextLength14, align 8
  %add19 = add nsw i32 %8, 1
  %call20 = call i32 @utext_extract_75(ptr noundef nonnull %call3, i64 noundef 0, i64 noundef %call4, ptr noundef %call17, i32 noundef %add19, ptr noundef nonnull %status)
  store ptr %call17, ptr %fText, align 8
  br label %if.end24.sink.split

if.end24.sink.split:                              ; preds = %if.else, %if.then10
  %.sink = phi i8 [ 0, %if.then10 ], [ 1, %if.else ]
  %.ph = phi ptr [ %7, %if.then10 ], [ %call17, %if.else ]
  %fOwnsText = getelementptr inbounds i8, ptr %regexp2, i64 60
  store i8 %.sink, ptr %fOwnsText, align 4
  br label %if.end24

if.end24:                                         ; preds = %if.end24.sink.split, %if.end
  %9 = phi ptr [ %2, %if.end ], [ %.ph, %if.end24.sink.split ]
  %cmp25.not = icmp eq ptr %textLength, null
  br i1 %cmp25.not, label %return, label %if.then26

if.then26:                                        ; preds = %if.end24
  %fTextLength27 = getelementptr inbounds i8, ptr %regexp2, i64 56
  %10 = load i32, ptr %fTextLength27, align 8
  store i32 %10, ptr %textLength, align 4
  %.pre = load ptr, ptr %fText, align 8
  br label %return

return:                                           ; preds = %if.end24, %if.then26, %return.sink.split.i, %entry
  %retval.0 = phi ptr [ null, %entry ], [ null, %return.sink.split.i ], [ %.pre, %if.then26 ], [ %9, %if.end24 ]
  ret ptr %retval.0
}